; Function Attrs: mustprogress nounwind uwtable
define hidden i64 @_ZN12LIRGenerator11atomic_xchgE9BasicType7LIR_OprR7LIRItem(ptr noundef nonnull align 8 dereferenceable(232) %0, i8 noundef zeroext %1, i64 %2, ptr noundef nonnull align 8 dereferenceable(40) %3) local_unnamed_addr #0 align 2 {
_Z17is_reference_type9BasicTypeb.exit:
  %4 = tail call i64 @_ZN12LIRGenerator12new_registerE9BasicType(ptr noundef nonnull align 8 dereferenceable(232) %0, i8 noundef zeroext %1) #9
  tail call void @_ZN7LIRItem9load_itemEv(ptr noundef nonnull align 8 dereferenceable(40) %3) #9
  %5 = getelementptr inbounds i8, ptr %0, i64 144
  %6 = load ptr, ptr %5, align 8
  %7 = getelementptr inbounds i8, ptr %3, i64 24
  %8 = load i8, ptr %7, align 8
  %9 = trunc i8 %8 to i1
  br i1 %9, label %10, label %30

10:                                               ; preds = %_Z17is_reference_type9BasicTypeb.exit
  %11 = getelementptr inbounds i8, ptr %3, i64 16
  %12 = load i64, ptr %11, align 8
  %13 = and i64 %12, 7
  switch i64 %13, label %30 [
    i64 5, label %14
    i64 3, label %14
  ]

14:                                               ; preds = %10, %10
  %15 = getelementptr inbounds i8, ptr %3, i64 32
  %16 = load i64, ptr %15, align 8
  %17 = and i64 %16, 7
  %18 = icmp eq i64 %17, 7
  br i1 %18, label %19, label %_ZN7LIRItem6resultEv.exit

19:                                               ; preds = %14
  %20 = getelementptr inbounds i8, ptr %3, i64 8
  %21 = load ptr, ptr %20, align 8
  %22 = load ptr, ptr %3, align 8
  %23 = getelementptr inbounds i8, ptr %22, i64 24
  %24 = load ptr, ptr %23, align 8
  %25 = tail call noundef zeroext i8 @_Z12as_BasicTypeP9ValueType(ptr noundef %24) #9
  %26 = tail call i64 @_ZN12LIRGenerator12new_registerE9BasicType(ptr noundef nonnull align 8 dereferenceable(232) %21, i8 noundef zeroext %25) #9
  store i64 %26, ptr %15, align 8
  %27 = load ptr, ptr %20, align 8
  %28 = getelementptr inbounds i8, ptr %27, i64 144
  %29 = load ptr, ptr %28, align 8
  %.sroa.01.0.copyload.i = load i64, ptr %11, align 8
  tail call void @_ZN8LIR_List4moveE7LIR_OprS0_P12CodeEmitInfo(ptr noundef nonnull align 8 dereferenceable(32) %29, i64 %.sroa.01.0.copyload.i, i64 %26, ptr noundef null)
  br label %_ZN7LIRItem6resultEv.exit

30:                                               ; preds = %10, %_Z17is_reference_type9BasicTypeb.exit
  %31 = getelementptr inbounds i8, ptr %3, i64 16
  br label %_ZN7LIRItem6resultEv.exit

_ZN7LIRItem6resultEv.exit:                        ; preds = %14, %19, %30
  %.sroa.03.0.in.i = phi ptr [ %31, %30 ], [ %15, %19 ], [ %15, %14 ]
  %.sroa.03.0.i = load i64, ptr %.sroa.03.0.in.i, align 8
  tail call void @_ZN8LIR_List4moveE7LIR_OprS0_P12CodeEmitInfo(ptr noundef nonnull align 8 dereferenceable(32) %6, i64 %.sroa.03.0.i, i64 %4, ptr noundef null)
  %32 = load ptr, ptr %5, align 8
  %.sroa.0.0.copyload = load i64, ptr @_ZN11LIR_OprFact10illegalOprE, align 8
  tail call void @_ZN8LIR_List4xchgE7LIR_OprS0_S0_S0_(ptr noundef nonnull align 8 dereferenceable(32) %32, i64 %2, i64 %4, i64 %4, i64 %.sroa.0.0.copyload)
  ret i64 %4
}